; Function Attrs: mustprogress ssp uwtable
define void @_ZN6open3d4core7HashSet5EraseERKNS0_6TensorE(ptr dead_on_unwind noalias writable sret(%"class.open3d::core::Tensor") align 8 initializes((0, 8)) %0, ptr noundef nonnull readonly align 8 captures(none) dereferenceable(24) %1, ptr noundef nonnull align 8 dereferenceable(160) %2) local_unnamed_addr #1 align 2 personality ptr @__gxx_personality_v0 {
  %4 = alloca %"class.std::initializer_list", align 8
  %5 = alloca [1 x i64], align 8
  %6 = alloca %"class.std::initializer_list", align 8
  %7 = alloca [1 x i64], align 8
  store ptr getelementptr inbounds nuw inrange(-16, 24) (i8, ptr @_ZTVN6open3d4core6TensorE, i64 16), ptr %0, align 8, !tbaa !4
  %8 = getelementptr inbounds nuw i8, ptr %0, i64 8
  call void @llvm.lifetime.start.p0(i64 16, ptr nonnull %4) #19
  call void @llvm.lifetime.start.p0(i64 8, ptr nonnull %5) #19
  store i64 0, ptr %5, align 8, !tbaa !42
  store ptr %5, ptr %4, align 8, !tbaa !44
  %9 = getelementptr inbounds nuw i8, ptr %4, i64 8
  store i64 1, ptr %9, align 8, !tbaa !47
  call void @_ZN6open3d4core10SizeVectorC1ERKSt16initializer_listIlE(ptr noundef nonnull align 8 dereferenceable(48) %8, ptr noundef nonnull align 8 dereferenceable(16) %4)
  call void @llvm.lifetime.end.p0(i64 8, ptr nonnull %5) #19
  call void @llvm.lifetime.end.p0(i64 16, ptr nonnull %4) #19
  %10 = getelementptr inbounds nuw i8, ptr %0, i64 56
  call void @llvm.lifetime.start.p0(i64 16, ptr nonnull %6) #19
  call void @llvm.lifetime.start.p0(i64 8, ptr nonnull %7) #19
  store i64 1, ptr %7, align 8, !tbaa !42
  store ptr %7, ptr %6, align 8, !tbaa !44
  %11 = getelementptr inbounds nuw i8, ptr %6, i64 8
  store i64 1, ptr %11, align 8, !tbaa !47
  invoke void @_ZN6open3d4core10SizeVectorC1ERKSt16initializer_listIlE(ptr noundef nonnull align 8 dereferenceable(48) %10, ptr noundef nonnull align 8 dereferenceable(16) %6)
          to label %_ZN6open3d4core6TensorC2Ev.exit unwind label %12

12:                                               ; preds = %3
  %13 = landingpad { ptr, i32 }
          cleanup
  call void @llvm.lifetime.end.p0(i64 8, ptr nonnull %7) #19
  call void @llvm.lifetime.end.p0(i64 16, ptr nonnull %6) #19
  %14 = load ptr, ptr %8, align 8, !tbaa !30
  %15 = getelementptr inbounds nuw i8, ptr %0, i64 24
  %16 = icmp eq ptr %14, %15
  br i1 %16, label %common.resume, label %17

17:                                               ; preds = %12
  call void @free(ptr noundef %14) #19
  br label %common.resume

common.resume:                                    ; preds = %12, %17, %23
  %common.resume.op = phi { ptr, i32 } [ %24, %23 ], [ %13, %17 ], [ %13, %12 ]
  resume { ptr, i32 } %common.resume.op

_ZN6open3d4core6TensorC2Ev.exit:                  ; preds = %3
  call void @llvm.lifetime.end.p0(i64 8, ptr nonnull %7) #19
  call void @llvm.lifetime.end.p0(i64 16, ptr nonnull %6) #19
  %18 = getelementptr inbounds nuw i8, ptr %0, i64 104
  store ptr null, ptr %18, align 8, !tbaa !48
  %19 = getelementptr inbounds nuw i8, ptr %0, i64 112
  call void @llvm.memcpy.p0.p0.i64(ptr noundef nonnull align 8 dereferenceable(32) %19, ptr noundef nonnull align 8 dereferenceable(32) @_ZN6open3d4core9UndefinedE, i64 32, i1 false), !tbaa.struct !62
  %20 = getelementptr inbounds nuw i8, ptr %0, i64 144
  call void @llvm.memset.p0.i64(ptr noundef nonnull align 8 dereferenceable(16) %20, i8 0, i64 16, i1 false)
  %21 = getelementptr inbounds nuw i8, ptr %1, i64 8
  %22 = load ptr, ptr %21, align 8, !tbaa !19
  invoke void @_ZN6open3d4core7HashMap5EraseERKNS0_6TensorERS2_(ptr noundef nonnull align 8 dereferenceable(152) %22, ptr noundef nonnull align 8 dereferenceable(160) %2, ptr noundef nonnull align 8 dereferenceable(160) %0)
          to label %_ZN6open3d4core7HashSet5EraseERKNS0_6TensorERS2_.exit unwind label %23

23:                                               ; preds = %_ZN6open3d4core6TensorC2Ev.exit
  %24 = landingpad { ptr, i32 }
          cleanup
  call void @_ZN6open3d4core6TensorD2Ev(ptr noundef nonnull align 8 dereferenceable(160) %0) #19
  br label %common.resume

_ZN6open3d4core7HashSet5EraseERKNS0_6TensorERS2_.exit: ; preds = %_ZN6open3d4core6TensorC2Ev.exit
  ret void
}